; Function Attrs: mustprogress nounwind uwtable
define hidden noundef ptr @_ZNK18ParsePredicateNode5ValueEP8PhaseGVN(ptr noundef nonnull align 8 dereferenceable(65) %0, ptr nocapture noundef readonly %1) unnamed_addr #0 align 2 {
  %3 = getelementptr inbounds i8, ptr %0, i64 8
  %4 = load ptr, ptr %3, align 8
  %5 = load ptr, ptr %4, align 8
  %6 = getelementptr inbounds i8, ptr %1, i64 40
  %7 = load ptr, ptr %6, align 8
  %8 = getelementptr inbounds i8, ptr %5, i64 40
  %9 = load i32, ptr %8, align 8
  %10 = getelementptr inbounds i8, ptr %7, i64 16
  %11 = load ptr, ptr %10, align 8
  %12 = zext i32 %9 to i64
  %13 = getelementptr inbounds ptr, ptr %11, i64 %12
  %14 = load ptr, ptr %13, align 8
  %15 = load ptr, ptr @_ZN4Type3TOPE, align 8
  %16 = icmp eq ptr %14, %15
  br i1 %16, label %34, label %17

17:                                               ; preds = %2
  %18 = getelementptr inbounds i8, ptr %0, i64 64
  %19 = load i8, ptr %18, align 8
  %20 = trunc i8 %19 to i1
  br i1 %20, label %27, label %21

21:                                               ; preds = %17
  %22 = getelementptr inbounds i8, ptr %1, i64 16
  %23 = load ptr, ptr %22, align 8
  %24 = getelementptr inbounds i8, ptr %23, i64 112
  %25 = load i8, ptr %24, align 8
  %26 = trunc i8 %25 to i1
  br i1 %26, label %27, label %29

27:                                               ; preds = %21, %17
  %28 = load ptr, ptr @_ZN9TypeTuple6IFTRUEE, align 8
  br label %34

29:                                               ; preds = %21
  %30 = load ptr, ptr %0, align 8
  %31 = getelementptr inbounds i8, ptr %30, i64 40
  %32 = load ptr, ptr %31, align 8
  %33 = tail call noundef ptr %32(ptr noundef nonnull align 8 dereferenceable(60) %0) #8
  br label %34

34:                                               ; preds = %2, %29, %27
  %.0 = phi ptr [ %28, %27 ], [ %33, %29 ], [ %15, %2 ]
  ret ptr %.0
}